target datalayout = "e-m:e-p270:32:32-p271:32:32-p272:64:64-i64:64-i128:128-f80:128-n8:16:32:64-S128"
target triple = "x86_64-pc-linux-gnu"

%"class.nanobind::handle" = type { ptr }
%"struct.nanobind::detail::tuple.388" = type { %"struct.nanobind::detail::type_caster.389" }
%"struct.nanobind::detail::type_caster.389" = type { %"class.nanobind::handle" }
%class.anon.1036 = type { i8 }

; Function Attrs: alwaysinline mustprogress nounwind optsize uwtable
define linkonce_odr hidden noundef zeroext i1 @_ZN8nanobind6handle6check_ES0_(ptr %0) #5 comdat align 2 {
  %2 = alloca %"class.nanobind::handle", align 8
  %3 = getelementptr inbounds nuw %"class.nanobind::handle", ptr %2, i32 0, i32 0
  store ptr %0, ptr %3, align 8
  ret i1 true
}

; Function Attrs: alwaysinline mustprogress nounwind optsize uwtable
define linkonce_odr hidden void @_ZN8nanobind6handleC2EDnNS_6detail7steal_tE(ptr noundef nonnull align 8 dereferenceable(8) %0, ptr %1) unnamed_addr #5 comdat align 2 {
  %3 = alloca ptr, align 8
  %4 = alloca ptr, align 8
  store ptr %0, ptr %3, align 8, !tbaa !28
  store ptr %1, ptr %4, align 8, !tbaa !45
  %5 = load ptr, ptr %3, align 8
  %6 = getelementptr inbounds nuw %"class.nanobind::handle", ptr %5, i32 0, i32 0
  store ptr null, ptr %6, align 8, !tbaa !30
  ret void
}

; Function Attrs: alwaysinline mustprogress nounwind optsize uwtable
define linkonce_odr hidden noundef zeroext i1 @_ZN8nanobind10isinstanceINS_6handleEEEbS1_(ptr %0) #5 comdat personality ptr @__gxx_personality_v0 {
  %2 = alloca %"class.nanobind::handle", align 8
  %3 = alloca %"class.nanobind::handle", align 8
  %4 = getelementptr inbounds nuw %"class.nanobind::handle", ptr %2, i32 0, i32 0
  store ptr %0, ptr %4, align 8
  call void @llvm.memcpy.p0.p0.i64(ptr align 8 %3, ptr align 8 %2, i64 8, i1 false)
  %5 = getelementptr inbounds nuw %"class.nanobind::handle", ptr %3, i32 0, i32 0
  %6 = load ptr, ptr %5, align 8
  %7 = invoke noundef zeroext i1 @_ZN8nanobind6handle6check_ES0_(ptr %6) #25
          to label %8 unwind label %9

8:                                                ; preds = %1
  ret i1 %7

9:                                                ; preds = %1
  %10 = landingpad { ptr, i32 }
          catch ptr null
  %11 = extractvalue { ptr, i32 } %10, 0
  call void @__clang_call_terminate(ptr %11) #26
  unreachable
}

; Function Attrs: mustprogress optsize uwtable
define linkonce_odr hidden void @_ZN8nanobind6detail11type_casterINS_6handleEiEC2Ev(ptr noundef nonnull align 8 dereferenceable(8) %0) unnamed_addr #3 comdat align 2 {
  %2 = alloca ptr, align 8
  store ptr %0, ptr %2, align 8, !tbaa !774
  %3 = load ptr, ptr %2, align 8
  %4 = getelementptr inbounds nuw %"struct.nanobind::detail::type_caster.389", ptr %3, i32 0, i32 0
  call void @_ZN8nanobind6handleC2EDnNS_6detail7steal_tE(ptr noundef nonnull align 8 dereferenceable(8) %4, ptr null) #25
  ret void
}

; Function Attrs: alwaysinline mustprogress nounwind optsize uwtable
define linkonce_odr hidden noundef ptr @_ZNK8nanobind6handle3ptrEv(ptr noundef nonnull align 8 dereferenceable(8) %0) #5 comdat align 2 {
  %2 = alloca ptr, align 8
  store ptr %0, ptr %2, align 8, !tbaa !28
  %3 = load ptr, ptr %2, align 8
  %4 = getelementptr inbounds nuw %"class.nanobind::handle", ptr %3, i32 0, i32 0
  %5 = load ptr, ptr %4, align 8, !tbaa !30
  ret ptr %5
}

; Function Attrs: alwaysinline mustprogress nounwind optsize uwtable
define linkonce_odr hidden ptr @_ZN8nanobind6detail11type_casterIiiE8from_cppEiNS_9rv_policyEPNS0_12cleanup_listE(i32 noundef %0, i32 noundef %1, ptr noundef %2) #5 comdat align 2 personality ptr @__gxx_personality_v0 {
  %4 = alloca %"class.nanobind::handle", align 8
  %5 = alloca i32, align 4
  %6 = alloca i32, align 4
  %7 = alloca ptr, align 8
  store i32 %0, ptr %5, align 4, !tbaa !26
  store i32 %1, ptr %6, align 4, !tbaa !43
  store ptr %2, ptr %7, align 8, !tbaa !426
  %8 = load i32, ptr %5, align 4, !tbaa !26
  %9 = sext i32 %8 to i64
  %10 = invoke ptr @PyLong_FromLong(i64 noundef %9) #25
          to label %11 unwind label %15

11:                                               ; preds = %3
  invoke void @_ZN8nanobind6handleC2EPK7_object(ptr noundef nonnull align 8 dereferenceable(8) %4, ptr noundef %10) #25
          to label %12 unwind label %15

12:                                               ; preds = %11
  %13 = getelementptr inbounds nuw %"class.nanobind::handle", ptr %4, i32 0, i32 0
  %14 = load ptr, ptr %13, align 8
  ret ptr %14

15:                                               ; preds = %11, %3
  %16 = landingpad { ptr, i32 }
          catch ptr null
  %17 = extractvalue { ptr, i32 } %16, 0
  call void @__clang_call_terminate(ptr %17) #26
  unreachable
}

; Function Attrs: inlinehint mustprogress nounwind optsize uwtable
define internal noundef i32 @"_ZZL30nanobind_init_test_classes_extRN8nanobind7module_EENK4$_51clENS_6handleE"(ptr noundef nonnull align 1 dereferenceable(1) %0, ptr %1) #12 align 2 {
  %3 = alloca %"class.nanobind::handle", align 8
  %4 = alloca ptr, align 8
  %5 = getelementptr inbounds nuw %"class.nanobind::handle", ptr %3, i32 0, i32 0
  store ptr %1, ptr %5, align 8
  store ptr %0, ptr %4, align 8, !tbaa !23
  ret i32 42
}

; Function Attrs: mustprogress nounwind optsize uwtable
define linkonce_odr hidden noundef nonnull align 8 dereferenceable(8) ptr @_ZN8nanobind6detail11type_casterINS_6handleEiEcvOS2_Ev(ptr noundef nonnull align 8 dereferenceable(8) %0) #1 comdat align 2 {
  %2 = alloca ptr, align 8
  store ptr %0, ptr %2, align 8, !tbaa !774
  %3 = load ptr, ptr %2, align 8
  %4 = getelementptr inbounds nuw %"struct.nanobind::detail::type_caster.389", ptr %3, i32 0, i32 0
  ret ptr %4
}

; Function Attrs: mustprogress nounwind optsize uwtable
define linkonce_odr hidden noundef zeroext i1 @_ZN8nanobind6detail11type_casterINS_6handleEiE11from_pythonES2_hPNS0_12cleanup_listE(ptr noundef nonnull align 8 dereferenceable(8) %0, ptr %1, i8 noundef zeroext %2, ptr noundef %3) #1 comdat align 2 {
  %5 = alloca i1, align 1
  %6 = alloca %"class.nanobind::handle", align 8
  %7 = alloca ptr, align 8
  %8 = alloca i8, align 1
  %9 = alloca ptr, align 8
  %10 = alloca %"class.nanobind::handle", align 8
  %11 = getelementptr inbounds nuw %"class.nanobind::handle", ptr %6, i32 0, i32 0
  store ptr %1, ptr %11, align 8
  store ptr %0, ptr %7, align 8, !tbaa !774
  store i8 %2, ptr %8, align 1, !tbaa !42
  store ptr %3, ptr %9, align 8, !tbaa !426
  %12 = load ptr, ptr %7, align 8
  call void @llvm.memcpy.p0.p0.i64(ptr align 8 %10, ptr align 8 %6, i64 8, i1 false)
  %13 = getelementptr inbounds nuw %"class.nanobind::handle", ptr %10, i32 0, i32 0
  %14 = load ptr, ptr %13, align 8
  %15 = call noundef zeroext i1 @_ZN8nanobind10isinstanceINS_6handleEEEbS1_(ptr %14) #24
  br i1 %15, label %17, label %16

16:                                               ; preds = %4
  store i1 false, ptr %5, align 1
  br label %19

17:                                               ; preds = %4
  %18 = getelementptr inbounds nuw %"struct.nanobind::detail::type_caster.389", ptr %12, i32 0, i32 0
  call void @llvm.memcpy.p0.p0.i64(ptr align 8 %18, ptr align 8 %6, i64 8, i1 false)
  store i1 true, ptr %5, align 1
  br label %19

19:                                               ; preds = %17, %16
  %20 = load i1, ptr %5, align 1
  ret i1 %20
}

; Function Attrs: alwaysinline mustprogress nounwind optsize uwtable
define linkonce_odr hidden void @_ZN8nanobind6handleC2EPK7_object(ptr noundef nonnull align 8 dereferenceable(8) %0, ptr noundef %1) unnamed_addr #5 comdat align 2 {
  %3 = alloca ptr, align 8
  %4 = alloca ptr, align 8
  store ptr %0, ptr %3, align 8, !tbaa !28
  store ptr %1, ptr %4, align 8, !tbaa !21
  %5 = load ptr, ptr %3, align 8
  %6 = getelementptr inbounds nuw %"class.nanobind::handle", ptr %5, i32 0, i32 0
  %7 = load ptr, ptr %4, align 8, !tbaa !21
  store ptr %7, ptr %6, align 8, !tbaa !30
  ret void
}

; Function Attrs: alwaysinline mustprogress nounwind optsize uwtable
define linkonce_odr hidden noundef nonnull align 8 dereferenceable(8) ptr @_ZN8nanobind6detail5tupleIJNS0_11type_casterINS_6handleEiEEEE3getILm0EEERDav(ptr noundef nonnull align 8 dereferenceable(8) %0) #5 comdat align 2 {
  %2 = alloca ptr, align 8
  store ptr %0, ptr %2, align 8, !tbaa !772
  %3 = load ptr, ptr %2, align 8
  %4 = getelementptr inbounds nuw %"struct.nanobind::detail::tuple.388", ptr %3, i32 0, i32 0
  ret ptr %4
}

; Function Attrs: mustprogress optsize uwtable
define linkonce_odr hidden void @_ZN8nanobind6detail5tupleIJNS0_11type_casterINS_6handleEiEEEEC2Ev(ptr noundef nonnull align 8 dereferenceable(8) %0) unnamed_addr #3 comdat align 2 {
  %2 = alloca ptr, align 8
  store ptr %0, ptr %2, align 8, !tbaa !772
  %3 = load ptr, ptr %2, align 8
  %4 = getelementptr inbounds nuw %"struct.nanobind::detail::tuple.388", ptr %3, i32 0, i32 0
  call void @_ZN8nanobind6detail11type_casterINS_6handleEiEC2Ev(ptr noundef nonnull align 8 dereferenceable(8) %4) #25
  ret void
}

; Function Attrs: alwaysinline mustprogress optsize uwtable
define internal noundef ptr @"_ZZN8nanobind6detail11func_createILb1ELb1ERZL30nanobind_init_test_classes_extRNS_7module_EE4$_51iJNS_6handleEEJLm0EEJNS_9is_getterENS_9rv_policyEEEEP7_objectOT1_PFT2_DpT3_ESt16integer_sequenceImJXspT4_EEEDpRKT5_ENKUlPvPSA_PhS8_PNS0_12cleanup_listEE_clESO_SP_SQ_S8_SS_"(ptr noundef nonnull align 1 dereferenceable(1) %0, ptr noundef %1, ptr noundef %2, ptr noundef %3, i32 noundef %4, ptr noundef %5) #8 align 2 {
  %7 = alloca ptr, align 8
  %8 = alloca ptr, align 8
  %9 = alloca ptr, align 8
  %10 = alloca ptr, align 8
  %11 = alloca ptr, align 8
  %12 = alloca i32, align 4
  %13 = alloca ptr, align 8
  %14 = alloca ptr, align 8
  %15 = alloca %"struct.nanobind::detail::tuple.388", align 8
  %16 = alloca %"class.nanobind::handle", align 8
  %17 = alloca i32, align 4
  %18 = alloca ptr, align 8
  %19 = alloca %"class.nanobind::handle", align 8
  %20 = alloca %"class.nanobind::handle", align 8
  store ptr %0, ptr %8, align 8, !tbaa !23
  store ptr %1, ptr %9, align 8, !tbaa !23
  store ptr %2, ptr %10, align 8, !tbaa !424
  store ptr %3, ptr %11, align 8, !tbaa !116
  store i32 %4, ptr %12, align 4, !tbaa !43
  store ptr %5, ptr %13, align 8, !tbaa !426
  call void @llvm.lifetime.start.p0(i64 8, ptr %14) #2
  %21 = load ptr, ptr %9, align 8, !tbaa !23
  store ptr %21, ptr %14, align 8, !tbaa !1864
  call void @llvm.lifetime.start.p0(i64 8, ptr %15) #2
  call void @_ZN8nanobind6detail5tupleIJNS0_11type_casterINS_6handleEiEEEEC2Ev(ptr noundef nonnull align 8 dereferenceable(8) %15) #25
  %22 = call noundef nonnull align 8 dereferenceable(8) ptr @_ZN8nanobind6detail5tupleIJNS0_11type_casterINS_6handleEiEEEE3getILm0EEERDav(ptr noundef nonnull align 8 dereferenceable(8) %15) #25
  %23 = load ptr, ptr %10, align 8, !tbaa !424
  %24 = getelementptr inbounds nuw ptr, ptr %23, i64 0
  %25 = load ptr, ptr %24, align 8, !tbaa !21
  call void @_ZN8nanobind6handleC2EPK7_object(ptr noundef nonnull align 8 dereferenceable(8) %16, ptr noundef %25) #25
  %26 = load ptr, ptr %11, align 8, !tbaa !116
  %27 = getelementptr inbounds nuw i8, ptr %26, i64 0
  %28 = load i8, ptr %27, align 1, !tbaa !42
  %29 = load ptr, ptr %13, align 8, !tbaa !426
  %30 = getelementptr inbounds nuw %"class.nanobind::handle", ptr %16, i32 0, i32 0
  %31 = load ptr, ptr %30, align 8
  %32 = call noundef zeroext i1 @_ZN8nanobind6detail11type_casterINS_6handleEiE11from_pythonES2_hPNS0_12cleanup_listE(ptr noundef nonnull align 8 dereferenceable(8) %22, ptr %31, i8 noundef zeroext %28, ptr noundef %29) #24
  br i1 %32, label %34, label %33

33:                                               ; preds = %6
  store ptr inttoptr (i64 1 to ptr), ptr %7, align 8
  store i32 1, ptr %17, align 4
  br label %47

34:                                               ; preds = %6
  call void @llvm.lifetime.start.p0(i64 8, ptr %18) #2
  call void @llvm.lifetime.start.p0(i64 8, ptr %19) #2
  %35 = load ptr, ptr %14, align 8, !tbaa !1864
  %36 = call noundef nonnull align 8 dereferenceable(8) ptr @_ZN8nanobind6detail5tupleIJNS0_11type_casterINS_6handleEiEEEE3getILm0EEERDav(ptr noundef nonnull align 8 dereferenceable(8) %15) #25
  %37 = call noundef nonnull align 8 dereferenceable(8) ptr @_ZN8nanobind6detail11type_casterINS_6handleEiEcvOS2_Ev(ptr noundef nonnull align 8 dereferenceable(8) %36) #25
  call void @llvm.memcpy.p0.p0.i64(ptr align 8 %20, ptr align 8 %37, i64 8, i1 false)
  %38 = getelementptr inbounds nuw %"class.nanobind::handle", ptr %20, i32 0, i32 0
  %39 = load ptr, ptr %38, align 8
  %40 = call noundef i32 @"_ZZL30nanobind_init_test_classes_extRN8nanobind7module_EENK4$_51clENS_6handleE"(ptr noundef nonnull align 1 dereferenceable(1) %35, ptr %39) #25
  %41 = load i32, ptr %12, align 4, !tbaa !43
  %42 = load ptr, ptr %13, align 8, !tbaa !426
  %43 = call ptr @_ZN8nanobind6detail11type_casterIiiE8from_cppEiNS_9rv_policyEPNS0_12cleanup_listE(i32 noundef %40, i32 noundef %41, ptr noundef %42) #24
  %44 = getelementptr inbounds nuw %"class.nanobind::handle", ptr %19, i32 0, i32 0
  store ptr %43, ptr %44, align 8
  %45 = call noundef ptr @_ZNK8nanobind6handle3ptrEv(ptr noundef nonnull align 8 dereferenceable(8) %19) #25
  store ptr %45, ptr %18, align 8, !tbaa !21
  call void @llvm.lifetime.end.p0(i64 8, ptr %19) #2
  %46 = load ptr, ptr %18, align 8, !tbaa !21
  store ptr %46, ptr %7, align 8
  store i32 1, ptr %17, align 4
  call void @llvm.lifetime.end.p0(i64 8, ptr %18) #2
  br label %47

47:                                               ; preds = %34, %33
  call void @llvm.lifetime.end.p0(i64 8, ptr %15) #2
  call void @llvm.lifetime.end.p0(i64 8, ptr %14) #2
  %48 = load ptr, ptr %7, align 8
  ret ptr %48
}

; Function Attrs: inlinehint mustprogress optsize uwtable
define internal noundef ptr @"_ZZN8nanobind6detail11func_createILb1ELb1ERZL30nanobind_init_test_classes_extRNS_7module_EE4$_51iJNS_6handleEEJLm0EEJNS_9is_getterENS_9rv_policyEEEEP7_objectOT1_PFT2_DpT3_ESt16integer_sequenceImJXspT4_EEEDpRKT5_ENUlPvPSA_PhS8_PNS0_12cleanup_listEE_8__invokeESO_SP_SQ_S8_SS_"(ptr noundef %0, ptr noundef %1, ptr noundef %2, i32 noundef %3, ptr noundef %4) #14 align 2 {
  %6 = alloca ptr, align 8
  %7 = alloca ptr, align 8
  %8 = alloca ptr, align 8
  %9 = alloca i32, align 4
  %10 = alloca ptr, align 8
  %11 = alloca %class.anon.1036, align 1
  store ptr %0, ptr %6, align 8, !tbaa !23
  store ptr %1, ptr %7, align 8, !tbaa !424
  store ptr %2, ptr %8, align 8, !tbaa !116
  store i32 %3, ptr %9, align 4, !tbaa !43
  store ptr %4, ptr %10, align 8, !tbaa !426
  %12 = load ptr, ptr %6, align 8, !tbaa !23
  %13 = load ptr, ptr %7, align 8, !tbaa !424
  %14 = load ptr, ptr %8, align 8, !tbaa !116
  %15 = load i32, ptr %9, align 4, !tbaa !43
  %16 = load ptr, ptr %10, align 8, !tbaa !426
  %17 = call noundef ptr @"_ZZN8nanobind6detail11func_createILb1ELb1ERZL30nanobind_init_test_classes_extRNS_7module_EE4$_51iJNS_6handleEEJLm0EEJNS_9is_getterENS_9rv_policyEEEEP7_objectOT1_PFT2_DpT3_ESt16integer_sequenceImJXspT4_EEEDpRKT5_ENKUlPvPSA_PhS8_PNS0_12cleanup_listEE_clESO_SP_SQ_S8_SS_"(ptr noundef nonnull align 1 dereferenceable(1) %11, ptr noundef %12, ptr noundef %13, ptr noundef %14, i32 noundef %15, ptr noundef %16) #25
  ret ptr %17
}