; Function Attrs: inlinehint mustprogress nounwind optsize uwtable
define internal noundef ptr @"_ZZN8nanobind6detail11func_createILb1ELb1ERZL30nanobind_init_test_classes_extRNS_7module_EE4$_51iJNS_6handleEEJLm0EEJNS_9is_getterENS_9rv_policyEEEEP7_objectOT1_PFT2_DpT3_ESt16integer_sequenceImJXspT4_EEEDpRKT5_ENUlPvPSA_PhS8_PNS0_12cleanup_listEE_8__invokeESO_SP_SQ_S8_SS_"(ptr readnone captures(none) %0, ptr readonly captures(none) %1, ptr readonly captures(none) %2, i32 %3, ptr readnone captures(none) %4) #20 align 2 personality ptr @__gxx_personality_v0 {
  %6 = invoke ptr @PyLong_FromLong(i64 noundef 42) #38
          to label %"_ZZN8nanobind6detail11func_createILb1ELb1ERZL30nanobind_init_test_classes_extRNS_7module_EE4$_51iJNS_6handleEEJLm0EEJNS_9is_getterENS_9rv_policyEEEEP7_objectOT1_PFT2_DpT3_ESt16integer_sequenceImJXspT4_EEEDpRKT5_ENKUlPvPSA_PhS8_PNS0_12cleanup_listEE_clESO_SP_SQ_S8_SS_.exit" unwind label %7

7:                                                ; preds = %5
  %8 = landingpad { ptr, i32 }
          catch ptr null
  %9 = extractvalue { ptr, i32 } %8, 0
  tail call void @__clang_call_terminate(ptr %9) #39
  unreachable

"_ZZN8nanobind6detail11func_createILb1ELb1ERZL30nanobind_init_test_classes_extRNS_7module_EE4$_51iJNS_6handleEEJLm0EEJNS_9is_getterENS_9rv_policyEEEEP7_objectOT1_PFT2_DpT3_ESt16integer_sequenceImJXspT4_EEEDpRKT5_ENKUlPvPSA_PhS8_PNS0_12cleanup_listEE_clESO_SP_SQ_S8_SS_.exit": ; preds = %5
  ret ptr %6
}